
stm32.elf:     file format elf32-littlearm

Sections:
Idx Name          Size      VMA       LMA       File off  Algn
  0 .isr_vector   0000010c  08000000  08000000  00001000  2**0
                  CONTENTS, ALLOC, LOAD, READONLY, DATA
  1 .text         00000b08  0800010c  0800010c  0000110c  2**2
                  CONTENTS, ALLOC, LOAD, READONLY, CODE
  2 .rodata       00000000  08000c14  08000c14  00002004  2**0
                  CONTENTS, ALLOC, LOAD, DATA
  3 .ARM.extab    00000000  08000c14  08000c14  00002004  2**0
                  CONTENTS, READONLY
  4 .ARM          00000000  08000c14  08000c14  00002004  2**0
                  CONTENTS, READONLY
  5 .preinit_array 00000000  08000c14  08000c14  00002004  2**0
                  CONTENTS, ALLOC, LOAD, DATA
  6 .init_array   00000004  08000c14  08000c14  00001c14  2**2
                  CONTENTS, ALLOC, LOAD, READONLY, DATA
  7 .fini_array   00000004  08000c18  08000c18  00001c18  2**2
                  CONTENTS, ALLOC, LOAD, READONLY, DATA
  8 .data         00000004  20000000  08000c1c  00002000  2**0
                  CONTENTS, ALLOC, LOAD, DATA
  9 .bss          00000020  20000004  08000c20  00002004  2**2
                  ALLOC
 10 ._user_heap_stack 00000604  20000024  08000c20  00002024  2**0
                  ALLOC
 11 .ARM.attributes 00000029  00000000  00000000  00002004  2**0
                  CONTENTS, READONLY
 12 .debug_info   00001092  00000000  00000000  0000202d  2**0
                  CONTENTS, READONLY, DEBUGGING, OCTETS
 13 .debug_abbrev 000005a6  00000000  00000000  000030bf  2**0
                  CONTENTS, READONLY, DEBUGGING, OCTETS
 14 .debug_aranges 000001e0  00000000  00000000  00003668  2**3
                  CONTENTS, READONLY, DEBUGGING, OCTETS
 15 .debug_rnglists 0000014d  00000000  00000000  00003848  2**0
                  CONTENTS, READONLY, DEBUGGING, OCTETS
 16 .debug_macro  00015487  00000000  00000000  00003995  2**0
                  CONTENTS, READONLY, DEBUGGING, OCTETS
 17 .debug_line   00002785  00000000  00000000  00018e1c  2**0
                  CONTENTS, READONLY, DEBUGGING, OCTETS
 18 .debug_str    0007b415  00000000  00000000  0001b5a1  2**0
                  CONTENTS, READONLY, DEBUGGING, OCTETS
 19 .comment      00000043  00000000  00000000  000969b6  2**0
                  CONTENTS, READONLY
 20 .debug_frame  000006d8  00000000  00000000  000969fc  2**2
                  CONTENTS, READONLY, DEBUGGING, OCTETS
 21 .debug_line_str 0000006a  00000000  00000000  000970d4  2**0
                  CONTENTS, READONLY, DEBUGGING, OCTETS

Disassembly of section .text:

0800010c <__do_global_dtors_aux>:
 800010c:	b510      	push	{r4, lr}
 800010e:	4c05      	ldr	r4, [pc, #20]	@ (8000124 <__do_global_dtors_aux+0x18>)
 8000110:	7823      	ldrb	r3, [r4, #0]
 8000112:	b933      	cbnz	r3, 8000122 <__do_global_dtors_aux+0x16>
 8000114:	4b04      	ldr	r3, [pc, #16]	@ (8000128 <__do_global_dtors_aux+0x1c>)
 8000116:	b113      	cbz	r3, 800011e <__do_global_dtors_aux+0x12>
 8000118:	4804      	ldr	r0, [pc, #16]	@ (800012c <__do_global_dtors_aux+0x20>)
 800011a:	f3af 8000 	nop.w
 800011e:	2301      	movs	r3, #1
 8000120:	7023      	strb	r3, [r4, #0]
 8000122:	bd10      	pop	{r4, pc}
 8000124:	20000004 	.word	0x20000004
 8000128:	00000000 	.word	0x00000000
 800012c:	08000bfc 	.word	0x08000bfc

08000130 <frame_dummy>:
 8000130:	b508      	push	{r3, lr}
 8000132:	4b03      	ldr	r3, [pc, #12]	@ (8000140 <frame_dummy+0x10>)
 8000134:	b11b      	cbz	r3, 800013e <frame_dummy+0xe>
 8000136:	4903      	ldr	r1, [pc, #12]	@ (8000144 <frame_dummy+0x14>)
 8000138:	4803      	ldr	r0, [pc, #12]	@ (8000148 <frame_dummy+0x18>)
 800013a:	f3af 8000 	nop.w
 800013e:	bd08      	pop	{r3, pc}
 8000140:	00000000 	.word	0x00000000
 8000144:	20000008 	.word	0x20000008
 8000148:	08000bfc 	.word	0x08000bfc

0800014c <__aeabi_frsub>:
 800014c:	f080 4000 	eor.w	r0, r0, #2147483648	@ 0x80000000
 8000150:	e002      	b.n	8000158 <__addsf3>
 8000152:	bf00      	nop

08000154 <__aeabi_fsub>:
 8000154:	f081 4100 	eor.w	r1, r1, #2147483648	@ 0x80000000

08000158 <__addsf3>:
 8000158:	0042      	lsls	r2, r0, #1
 800015a:	bf1f      	itttt	ne
 800015c:	ea5f 0341 	movsne.w	r3, r1, lsl #1
 8000160:	ea92 0f03 	teqne	r2, r3
 8000164:	ea7f 6c22 	mvnsne.w	ip, r2, asr #24
 8000168:	ea7f 6c23 	mvnsne.w	ip, r3, asr #24
 800016c:	d06a      	beq.n	8000244 <__addsf3+0xec>
 800016e:	ea4f 6212 	mov.w	r2, r2, lsr #24
 8000172:	ebd2 6313 	rsbs	r3, r2, r3, lsr #24
 8000176:	bfc1      	itttt	gt
 8000178:	18d2      	addgt	r2, r2, r3
 800017a:	4041      	eorgt	r1, r0
 800017c:	4048      	eorgt	r0, r1
 800017e:	4041      	eorgt	r1, r0
 8000180:	bfb8      	it	lt
 8000182:	425b      	neglt	r3, r3
 8000184:	2b19      	cmp	r3, #25
 8000186:	bf88      	it	hi
 8000188:	4770      	bxhi	lr
 800018a:	f010 4f00 	tst.w	r0, #2147483648	@ 0x80000000
 800018e:	f440 0000 	orr.w	r0, r0, #8388608	@ 0x800000
 8000192:	f020 407f 	bic.w	r0, r0, #4278190080	@ 0xff000000
 8000196:	bf18      	it	ne
 8000198:	4240      	negne	r0, r0
 800019a:	f011 4f00 	tst.w	r1, #2147483648	@ 0x80000000
 800019e:	f441 0100 	orr.w	r1, r1, #8388608	@ 0x800000
 80001a2:	f021 417f 	bic.w	r1, r1, #4278190080	@ 0xff000000
 80001a6:	bf18      	it	ne
 80001a8:	4249      	negne	r1, r1
 80001aa:	ea92 0f03 	teq	r2, r3
 80001ae:	d03f      	beq.n	8000230 <__addsf3+0xd8>
 80001b0:	f1a2 0201 	sub.w	r2, r2, #1
 80001b4:	fa41 fc03 	asr.w	ip, r1, r3
 80001b8:	eb10 000c 	adds.w	r0, r0, ip
 80001bc:	f1c3 0320 	rsb	r3, r3, #32
 80001c0:	fa01 f103 	lsl.w	r1, r1, r3
 80001c4:	f000 4300 	and.w	r3, r0, #2147483648	@ 0x80000000
 80001c8:	d502      	bpl.n	80001d0 <__addsf3+0x78>
 80001ca:	4249      	negs	r1, r1
 80001cc:	eb60 0040 	sbc.w	r0, r0, r0, lsl #1
 80001d0:	f5b0 0f00 	cmp.w	r0, #8388608	@ 0x800000
 80001d4:	d313      	bcc.n	80001fe <__addsf3+0xa6>
 80001d6:	f1b0 7f80 	cmp.w	r0, #16777216	@ 0x1000000
 80001da:	d306      	bcc.n	80001ea <__addsf3+0x92>
 80001dc:	0840      	lsrs	r0, r0, #1
 80001de:	ea4f 0131 	mov.w	r1, r1, rrx
 80001e2:	f102 0201 	add.w	r2, r2, #1
 80001e6:	2afe      	cmp	r2, #254	@ 0xfe
 80001e8:	d251      	bcs.n	800028e <__addsf3+0x136>
 80001ea:	f1b1 4f00 	cmp.w	r1, #2147483648	@ 0x80000000
 80001ee:	eb40 50c2 	adc.w	r0, r0, r2, lsl #23
 80001f2:	bf08      	it	eq
 80001f4:	f020 0001 	biceq.w	r0, r0, #1
 80001f8:	ea40 0003 	orr.w	r0, r0, r3
 80001fc:	4770      	bx	lr
 80001fe:	0049      	lsls	r1, r1, #1
 8000200:	eb40 0000 	adc.w	r0, r0, r0
 8000204:	3a01      	subs	r2, #1
 8000206:	bf28      	it	cs
 8000208:	f5b0 0f00 	cmpcs.w	r0, #8388608	@ 0x800000
 800020c:	d2ed      	bcs.n	80001ea <__addsf3+0x92>
 800020e:	fab0 fc80 	clz	ip, r0
 8000212:	f1ac 0c08 	sub.w	ip, ip, #8
 8000216:	ebb2 020c 	subs.w	r2, r2, ip
 800021a:	fa00 f00c 	lsl.w	r0, r0, ip
 800021e:	bfaa      	itet	ge
 8000220:	eb00 50c2 	addge.w	r0, r0, r2, lsl #23
 8000224:	4252      	neglt	r2, r2
 8000226:	4318      	orrge	r0, r3
 8000228:	bfbc      	itt	lt
 800022a:	40d0      	lsrlt	r0, r2
 800022c:	4318      	orrlt	r0, r3
 800022e:	4770      	bx	lr
 8000230:	f092 0f00 	teq	r2, #0
 8000234:	f481 0100 	eor.w	r1, r1, #8388608	@ 0x800000
 8000238:	bf06      	itte	eq
 800023a:	f480 0000 	eoreq.w	r0, r0, #8388608	@ 0x800000
 800023e:	3201      	addeq	r2, #1
 8000240:	3b01      	subne	r3, #1
 8000242:	e7b5      	b.n	80001b0 <__addsf3+0x58>
 8000244:	ea4f 0341 	mov.w	r3, r1, lsl #1
 8000248:	ea7f 6c22 	mvns.w	ip, r2, asr #24
 800024c:	bf18      	it	ne
 800024e:	ea7f 6c23 	mvnsne.w	ip, r3, asr #24
 8000252:	d021      	beq.n	8000298 <__addsf3+0x140>
 8000254:	ea92 0f03 	teq	r2, r3
 8000258:	d004      	beq.n	8000264 <__addsf3+0x10c>
 800025a:	f092 0f00 	teq	r2, #0
 800025e:	bf08      	it	eq
 8000260:	4608      	moveq	r0, r1
 8000262:	4770      	bx	lr
 8000264:	ea90 0f01 	teq	r0, r1
 8000268:	bf1c      	itt	ne
 800026a:	2000      	movne	r0, #0
 800026c:	4770      	bxne	lr
 800026e:	f012 4f7f 	tst.w	r2, #4278190080	@ 0xff000000
 8000272:	d104      	bne.n	800027e <__addsf3+0x126>
 8000274:	0040      	lsls	r0, r0, #1
 8000276:	bf28      	it	cs
 8000278:	f040 4000 	orrcs.w	r0, r0, #2147483648	@ 0x80000000
 800027c:	4770      	bx	lr
 800027e:	f112 7200 	adds.w	r2, r2, #33554432	@ 0x2000000
 8000282:	bf3c      	itt	cc
 8000284:	f500 0000 	addcc.w	r0, r0, #8388608	@ 0x800000
 8000288:	4770      	bxcc	lr
 800028a:	f000 4300 	and.w	r3, r0, #2147483648	@ 0x80000000
 800028e:	f043 40fe 	orr.w	r0, r3, #2130706432	@ 0x7f000000
 8000292:	f440 0000 	orr.w	r0, r0, #8388608	@ 0x800000
 8000296:	4770      	bx	lr
 8000298:	ea7f 6222 	mvns.w	r2, r2, asr #24
 800029c:	bf16      	itet	ne
 800029e:	4608      	movne	r0, r1
 80002a0:	ea7f 6323 	mvnseq.w	r3, r3, asr #24
 80002a4:	4601      	movne	r1, r0
 80002a6:	0242      	lsls	r2, r0, #9
 80002a8:	bf06      	itte	eq
 80002aa:	ea5f 2341 	movseq.w	r3, r1, lsl #9
 80002ae:	ea90 0f01 	teqeq	r0, r1
 80002b2:	f440 0080 	orrne.w	r0, r0, #4194304	@ 0x400000
 80002b6:	4770      	bx	lr

080002b8 <__aeabi_ui2f>:
 80002b8:	f04f 0300 	mov.w	r3, #0
 80002bc:	e004      	b.n	80002c8 <__aeabi_i2f+0x8>
 80002be:	bf00      	nop

080002c0 <__aeabi_i2f>:
 80002c0:	f010 4300 	ands.w	r3, r0, #2147483648	@ 0x80000000
 80002c4:	bf48      	it	mi
 80002c6:	4240      	negmi	r0, r0
 80002c8:	ea5f 0c00 	movs.w	ip, r0
 80002cc:	bf08      	it	eq
 80002ce:	4770      	bxeq	lr
 80002d0:	f043 4396 	orr.w	r3, r3, #1258291200	@ 0x4b000000
 80002d4:	4601      	mov	r1, r0
 80002d6:	f04f 0000 	mov.w	r0, #0
 80002da:	e01c      	b.n	8000316 <__aeabi_l2f+0x2a>

080002dc <__aeabi_ul2f>:
 80002dc:	ea50 0201 	orrs.w	r2, r0, r1
 80002e0:	bf08      	it	eq
 80002e2:	4770      	bxeq	lr
 80002e4:	f04f 0300 	mov.w	r3, #0
 80002e8:	e00a      	b.n	8000300 <__aeabi_l2f+0x14>
 80002ea:	bf00      	nop

080002ec <__aeabi_l2f>:
 80002ec:	ea50 0201 	orrs.w	r2, r0, r1
 80002f0:	bf08      	it	eq
 80002f2:	4770      	bxeq	lr
 80002f4:	f011 4300 	ands.w	r3, r1, #2147483648	@ 0x80000000
 80002f8:	d502      	bpl.n	8000300 <__aeabi_l2f+0x14>
 80002fa:	4240      	negs	r0, r0
 80002fc:	eb61 0141 	sbc.w	r1, r1, r1, lsl #1
 8000300:	ea5f 0c01 	movs.w	ip, r1
 8000304:	bf02      	ittt	eq
 8000306:	4684      	moveq	ip, r0
 8000308:	4601      	moveq	r1, r0
 800030a:	2000      	moveq	r0, #0
 800030c:	f043 43b6 	orr.w	r3, r3, #1526726656	@ 0x5b000000
 8000310:	bf08      	it	eq
 8000312:	f1a3 5380 	subeq.w	r3, r3, #268435456	@ 0x10000000
 8000316:	f5a3 0300 	sub.w	r3, r3, #8388608	@ 0x800000
 800031a:	fabc f28c 	clz	r2, ip
 800031e:	3a08      	subs	r2, #8
 8000320:	eba3 53c2 	sub.w	r3, r3, r2, lsl #23
 8000324:	db10      	blt.n	8000348 <__aeabi_l2f+0x5c>
 8000326:	fa01 fc02 	lsl.w	ip, r1, r2
 800032a:	4463      	add	r3, ip
 800032c:	fa00 fc02 	lsl.w	ip, r0, r2
 8000330:	f1c2 0220 	rsb	r2, r2, #32
 8000334:	f1bc 4f00 	cmp.w	ip, #2147483648	@ 0x80000000
 8000338:	fa20 f202 	lsr.w	r2, r0, r2
 800033c:	eb43 0002 	adc.w	r0, r3, r2
 8000340:	bf08      	it	eq
 8000342:	f020 0001 	biceq.w	r0, r0, #1
 8000346:	4770      	bx	lr
 8000348:	f102 0220 	add.w	r2, r2, #32
 800034c:	fa01 fc02 	lsl.w	ip, r1, r2
 8000350:	f1c2 0220 	rsb	r2, r2, #32
 8000354:	ea50 004c 	orrs.w	r0, r0, ip, lsl #1
 8000358:	fa21 f202 	lsr.w	r2, r1, r2
 800035c:	eb43 0002 	adc.w	r0, r3, r2
 8000360:	bf08      	it	eq
 8000362:	ea20 70dc 	biceq.w	r0, r0, ip, lsr #31
 8000366:	4770      	bx	lr

08000368 <__aeabi_fmul>:
 8000368:	f04f 0cff 	mov.w	ip, #255	@ 0xff
 800036c:	ea1c 52d0 	ands.w	r2, ip, r0, lsr #23
 8000370:	bf1e      	ittt	ne
 8000372:	ea1c 53d1 	andsne.w	r3, ip, r1, lsr #23
 8000376:	ea92 0f0c 	teqne	r2, ip
 800037a:	ea93 0f0c 	teqne	r3, ip
 800037e:	d06f      	beq.n	8000460 <__aeabi_fmul+0xf8>
 8000380:	441a      	add	r2, r3
 8000382:	ea80 0c01 	eor.w	ip, r0, r1
 8000386:	0240      	lsls	r0, r0, #9
 8000388:	bf18      	it	ne
 800038a:	ea5f 2141 	movsne.w	r1, r1, lsl #9
 800038e:	d01e      	beq.n	80003ce <__aeabi_fmul+0x66>
 8000390:	f04f 6300 	mov.w	r3, #134217728	@ 0x8000000
 8000394:	ea43 1050 	orr.w	r0, r3, r0, lsr #5
 8000398:	ea43 1151 	orr.w	r1, r3, r1, lsr #5
 800039c:	fba0 3101 	umull	r3, r1, r0, r1
 80003a0:	f00c 4000 	and.w	r0, ip, #2147483648	@ 0x80000000
 80003a4:	f5b1 0f00 	cmp.w	r1, #8388608	@ 0x800000
 80003a8:	bf3e      	ittt	cc
 80003aa:	0049      	lslcc	r1, r1, #1
 80003ac:	ea41 71d3 	orrcc.w	r1, r1, r3, lsr #31
 80003b0:	005b      	lslcc	r3, r3, #1
 80003b2:	ea40 0001 	orr.w	r0, r0, r1
 80003b6:	f162 027f 	sbc.w	r2, r2, #127	@ 0x7f
 80003ba:	2afd      	cmp	r2, #253	@ 0xfd
 80003bc:	d81d      	bhi.n	80003fa <__aeabi_fmul+0x92>
 80003be:	f1b3 4f00 	cmp.w	r3, #2147483648	@ 0x80000000
 80003c2:	eb40 50c2 	adc.w	r0, r0, r2, lsl #23
 80003c6:	bf08      	it	eq
 80003c8:	f020 0001 	biceq.w	r0, r0, #1
 80003cc:	4770      	bx	lr
 80003ce:	f090 0f00 	teq	r0, #0
 80003d2:	f00c 4c00 	and.w	ip, ip, #2147483648	@ 0x80000000
 80003d6:	bf08      	it	eq
 80003d8:	0249      	lsleq	r1, r1, #9
 80003da:	ea4c 2050 	orr.w	r0, ip, r0, lsr #9
 80003de:	ea40 2051 	orr.w	r0, r0, r1, lsr #9
 80003e2:	3a7f      	subs	r2, #127	@ 0x7f
 80003e4:	bfc2      	ittt	gt
 80003e6:	f1d2 03ff 	rsbsgt	r3, r2, #255	@ 0xff
 80003ea:	ea40 50c2 	orrgt.w	r0, r0, r2, lsl #23
 80003ee:	4770      	bxgt	lr
 80003f0:	f440 0000 	orr.w	r0, r0, #8388608	@ 0x800000
 80003f4:	f04f 0300 	mov.w	r3, #0
 80003f8:	3a01      	subs	r2, #1
 80003fa:	dc5d      	bgt.n	80004b8 <__aeabi_fmul+0x150>
 80003fc:	f112 0f19 	cmn.w	r2, #25
 8000400:	bfdc      	itt	le
 8000402:	f000 4000 	andle.w	r0, r0, #2147483648	@ 0x80000000
 8000406:	4770      	bxle	lr
 8000408:	f1c2 0200 	rsb	r2, r2, #0
 800040c:	0041      	lsls	r1, r0, #1
 800040e:	fa21 f102 	lsr.w	r1, r1, r2
 8000412:	f1c2 0220 	rsb	r2, r2, #32
 8000416:	fa00 fc02 	lsl.w	ip, r0, r2
 800041a:	ea5f 0031 	movs.w	r0, r1, rrx
 800041e:	f140 0000 	adc.w	r0, r0, #0
 8000422:	ea53 034c 	orrs.w	r3, r3, ip, lsl #1
 8000426:	bf08      	it	eq
 8000428:	ea20 70dc 	biceq.w	r0, r0, ip, lsr #31
 800042c:	4770      	bx	lr
 800042e:	f092 0f00 	teq	r2, #0
 8000432:	f000 4c00 	and.w	ip, r0, #2147483648	@ 0x80000000
 8000436:	bf02      	ittt	eq
 8000438:	0040      	lsleq	r0, r0, #1
 800043a:	f410 0f00 	tsteq.w	r0, #8388608	@ 0x800000
 800043e:	3a01      	subeq	r2, #1
 8000440:	d0f9      	beq.n	8000436 <__aeabi_fmul+0xce>
 8000442:	ea40 000c 	orr.w	r0, r0, ip
 8000446:	f093 0f00 	teq	r3, #0
 800044a:	f001 4c00 	and.w	ip, r1, #2147483648	@ 0x80000000
 800044e:	bf02      	ittt	eq
 8000450:	0049      	lsleq	r1, r1, #1
 8000452:	f411 0f00 	tsteq.w	r1, #8388608	@ 0x800000
 8000456:	3b01      	subeq	r3, #1
 8000458:	d0f9      	beq.n	800044e <__aeabi_fmul+0xe6>
 800045a:	ea41 010c 	orr.w	r1, r1, ip
 800045e:	e78f      	b.n	8000380 <__aeabi_fmul+0x18>
 8000460:	ea0c 53d1 	and.w	r3, ip, r1, lsr #23
 8000464:	ea92 0f0c 	teq	r2, ip
 8000468:	bf18      	it	ne
 800046a:	ea93 0f0c 	teqne	r3, ip
 800046e:	d00a      	beq.n	8000486 <__aeabi_fmul+0x11e>
 8000470:	f030 4c00 	bics.w	ip, r0, #2147483648	@ 0x80000000
 8000474:	bf18      	it	ne
 8000476:	f031 4c00 	bicsne.w	ip, r1, #2147483648	@ 0x80000000
 800047a:	d1d8      	bne.n	800042e <__aeabi_fmul+0xc6>
 800047c:	ea80 0001 	eor.w	r0, r0, r1
 8000480:	f000 4000 	and.w	r0, r0, #2147483648	@ 0x80000000
 8000484:	4770      	bx	lr
 8000486:	f090 0f00 	teq	r0, #0
 800048a:	bf17      	itett	ne
 800048c:	f090 4f00 	teqne	r0, #2147483648	@ 0x80000000
 8000490:	4608      	moveq	r0, r1
 8000492:	f091 0f00 	teqne	r1, #0
 8000496:	f091 4f00 	teqne	r1, #2147483648	@ 0x80000000
 800049a:	d014      	beq.n	80004c6 <__aeabi_fmul+0x15e>
 800049c:	ea92 0f0c 	teq	r2, ip
 80004a0:	d101      	bne.n	80004a6 <__aeabi_fmul+0x13e>
 80004a2:	0242      	lsls	r2, r0, #9
 80004a4:	d10f      	bne.n	80004c6 <__aeabi_fmul+0x15e>
 80004a6:	ea93 0f0c 	teq	r3, ip
 80004aa:	d103      	bne.n	80004b4 <__aeabi_fmul+0x14c>
 80004ac:	024b      	lsls	r3, r1, #9
 80004ae:	bf18      	it	ne
 80004b0:	4608      	movne	r0, r1
 80004b2:	d108      	bne.n	80004c6 <__aeabi_fmul+0x15e>
 80004b4:	ea80 0001 	eor.w	r0, r0, r1
 80004b8:	f000 4000 	and.w	r0, r0, #2147483648	@ 0x80000000
 80004bc:	f040 40fe 	orr.w	r0, r0, #2130706432	@ 0x7f000000
 80004c0:	f440 0000 	orr.w	r0, r0, #8388608	@ 0x800000
 80004c4:	4770      	bx	lr
 80004c6:	f040 40fe 	orr.w	r0, r0, #2130706432	@ 0x7f000000
 80004ca:	f440 0040 	orr.w	r0, r0, #12582912	@ 0xc00000
 80004ce:	4770      	bx	lr

080004d0 <__aeabi_fdiv>:
 80004d0:	f04f 0cff 	mov.w	ip, #255	@ 0xff
 80004d4:	ea1c 52d0 	ands.w	r2, ip, r0, lsr #23
 80004d8:	bf1e      	ittt	ne
 80004da:	ea1c 53d1 	andsne.w	r3, ip, r1, lsr #23
 80004de:	ea92 0f0c 	teqne	r2, ip
 80004e2:	ea93 0f0c 	teqne	r3, ip
 80004e6:	d069      	beq.n	80005bc <__aeabi_fdiv+0xec>
 80004e8:	eba2 0203 	sub.w	r2, r2, r3
 80004ec:	ea80 0c01 	eor.w	ip, r0, r1
 80004f0:	0249      	lsls	r1, r1, #9
 80004f2:	ea4f 2040 	mov.w	r0, r0, lsl #9
 80004f6:	d037      	beq.n	8000568 <__aeabi_fdiv+0x98>
 80004f8:	f04f 5380 	mov.w	r3, #268435456	@ 0x10000000
 80004fc:	ea43 1111 	orr.w	r1, r3, r1, lsr #4
 8000500:	ea43 1310 	orr.w	r3, r3, r0, lsr #4
 8000504:	f00c 4000 	and.w	r0, ip, #2147483648	@ 0x80000000
 8000508:	428b      	cmp	r3, r1
 800050a:	bf38      	it	cc
 800050c:	005b      	lslcc	r3, r3, #1
 800050e:	f142 027d 	adc.w	r2, r2, #125	@ 0x7d
 8000512:	f44f 0c00 	mov.w	ip, #8388608	@ 0x800000
 8000516:	428b      	cmp	r3, r1
 8000518:	bf24      	itt	cs
 800051a:	1a5b      	subcs	r3, r3, r1
 800051c:	ea40 000c 	orrcs.w	r0, r0, ip
 8000520:	ebb3 0f51 	cmp.w	r3, r1, lsr #1
 8000524:	bf24      	itt	cs
 8000526:	eba3 0351 	subcs.w	r3, r3, r1, lsr #1
 800052a:	ea40 005c 	orrcs.w	r0, r0, ip, lsr #1
 800052e:	ebb3 0f91 	cmp.w	r3, r1, lsr #2
 8000532:	bf24      	itt	cs
 8000534:	eba3 0391 	subcs.w	r3, r3, r1, lsr #2
 8000538:	ea40 009c 	orrcs.w	r0, r0, ip, lsr #2
 800053c:	ebb3 0fd1 	cmp.w	r3, r1, lsr #3
 8000540:	bf24      	itt	cs
 8000542:	eba3 03d1 	subcs.w	r3, r3, r1, lsr #3
 8000546:	ea40 00dc 	orrcs.w	r0, r0, ip, lsr #3
 800054a:	011b      	lsls	r3, r3, #4
 800054c:	bf18      	it	ne
 800054e:	ea5f 1c1c 	movsne.w	ip, ip, lsr #4
 8000552:	d1e0      	bne.n	8000516 <__aeabi_fdiv+0x46>
 8000554:	2afd      	cmp	r2, #253	@ 0xfd
 8000556:	f63f af50 	bhi.w	80003fa <__aeabi_fmul+0x92>
 800055a:	428b      	cmp	r3, r1
 800055c:	eb40 50c2 	adc.w	r0, r0, r2, lsl #23
 8000560:	bf08      	it	eq
 8000562:	f020 0001 	biceq.w	r0, r0, #1
 8000566:	4770      	bx	lr
 8000568:	f00c 4c00 	and.w	ip, ip, #2147483648	@ 0x80000000
 800056c:	ea4c 2050 	orr.w	r0, ip, r0, lsr #9
 8000570:	327f      	adds	r2, #127	@ 0x7f
 8000572:	bfc2      	ittt	gt
 8000574:	f1d2 03ff 	rsbsgt	r3, r2, #255	@ 0xff
 8000578:	ea40 50c2 	orrgt.w	r0, r0, r2, lsl #23
 800057c:	4770      	bxgt	lr
 800057e:	f440 0000 	orr.w	r0, r0, #8388608	@ 0x800000
 8000582:	f04f 0300 	mov.w	r3, #0
 8000586:	3a01      	subs	r2, #1
 8000588:	e737      	b.n	80003fa <__aeabi_fmul+0x92>
 800058a:	f092 0f00 	teq	r2, #0
 800058e:	f000 4c00 	and.w	ip, r0, #2147483648	@ 0x80000000
 8000592:	bf02      	ittt	eq
 8000594:	0040      	lsleq	r0, r0, #1
 8000596:	f410 0f00 	tsteq.w	r0, #8388608	@ 0x800000
 800059a:	3a01      	subeq	r2, #1
 800059c:	d0f9      	beq.n	8000592 <__aeabi_fdiv+0xc2>
 800059e:	ea40 000c 	orr.w	r0, r0, ip
 80005a2:	f093 0f00 	teq	r3, #0
 80005a6:	f001 4c00 	and.w	ip, r1, #2147483648	@ 0x80000000
 80005aa:	bf02      	ittt	eq
 80005ac:	0049      	lsleq	r1, r1, #1
 80005ae:	f411 0f00 	tsteq.w	r1, #8388608	@ 0x800000
 80005b2:	3b01      	subeq	r3, #1
 80005b4:	d0f9      	beq.n	80005aa <__aeabi_fdiv+0xda>
 80005b6:	ea41 010c 	orr.w	r1, r1, ip
 80005ba:	e795      	b.n	80004e8 <__aeabi_fdiv+0x18>
 80005bc:	ea0c 53d1 	and.w	r3, ip, r1, lsr #23
 80005c0:	ea92 0f0c 	teq	r2, ip
 80005c4:	d108      	bne.n	80005d8 <__aeabi_fdiv+0x108>
 80005c6:	0242      	lsls	r2, r0, #9
 80005c8:	f47f af7d 	bne.w	80004c6 <__aeabi_fmul+0x15e>
 80005cc:	ea93 0f0c 	teq	r3, ip
 80005d0:	f47f af70 	bne.w	80004b4 <__aeabi_fmul+0x14c>
 80005d4:	4608      	mov	r0, r1
 80005d6:	e776      	b.n	80004c6 <__aeabi_fmul+0x15e>
 80005d8:	ea93 0f0c 	teq	r3, ip
 80005dc:	d104      	bne.n	80005e8 <__aeabi_fdiv+0x118>
 80005de:	024b      	lsls	r3, r1, #9
 80005e0:	f43f af4c 	beq.w	800047c <__aeabi_fmul+0x114>
 80005e4:	4608      	mov	r0, r1
 80005e6:	e76e      	b.n	80004c6 <__aeabi_fmul+0x15e>
 80005e8:	f030 4c00 	bics.w	ip, r0, #2147483648	@ 0x80000000
 80005ec:	bf18      	it	ne
 80005ee:	f031 4c00 	bicsne.w	ip, r1, #2147483648	@ 0x80000000
 80005f2:	d1ca      	bne.n	800058a <__aeabi_fdiv+0xba>
 80005f4:	f030 4200 	bics.w	r2, r0, #2147483648	@ 0x80000000
 80005f8:	f47f af5c 	bne.w	80004b4 <__aeabi_fmul+0x14c>
 80005fc:	f031 4300 	bics.w	r3, r1, #2147483648	@ 0x80000000
 8000600:	f47f af3c 	bne.w	800047c <__aeabi_fmul+0x114>
 8000604:	e75f      	b.n	80004c6 <__aeabi_fmul+0x15e>
 8000606:	bf00      	nop

08000608 <__gesf2>:
 8000608:	f04f 3cff 	mov.w	ip, #4294967295
 800060c:	e006      	b.n	800061c <__cmpsf2+0x4>
 800060e:	bf00      	nop

08000610 <__lesf2>:
 8000610:	f04f 0c01 	mov.w	ip, #1
 8000614:	e002      	b.n	800061c <__cmpsf2+0x4>
 8000616:	bf00      	nop

08000618 <__cmpsf2>:
 8000618:	f04f 0c01 	mov.w	ip, #1
 800061c:	f84d cd04 	str.w	ip, [sp, #-4]!
 8000620:	ea4f 0240 	mov.w	r2, r0, lsl #1
 8000624:	ea4f 0341 	mov.w	r3, r1, lsl #1
 8000628:	ea7f 6c22 	mvns.w	ip, r2, asr #24
 800062c:	bf18      	it	ne
 800062e:	ea7f 6c23 	mvnsne.w	ip, r3, asr #24
 8000632:	d011      	beq.n	8000658 <__cmpsf2+0x40>
 8000634:	b001      	add	sp, #4
 8000636:	ea52 0c53 	orrs.w	ip, r2, r3, lsr #1
 800063a:	bf18      	it	ne
 800063c:	ea90 0f01 	teqne	r0, r1
 8000640:	bf58      	it	pl
 8000642:	ebb2 0003 	subspl.w	r0, r2, r3
 8000646:	bf88      	it	hi
 8000648:	17c8      	asrhi	r0, r1, #31
 800064a:	bf38      	it	cc
 800064c:	ea6f 70e1 	mvncc.w	r0, r1, asr #31
 8000650:	bf18      	it	ne
 8000652:	f040 0001 	orrne.w	r0, r0, #1
 8000656:	4770      	bx	lr
 8000658:	ea7f 6c22 	mvns.w	ip, r2, asr #24
 800065c:	d102      	bne.n	8000664 <__cmpsf2+0x4c>
 800065e:	ea5f 2c40 	movs.w	ip, r0, lsl #9
 8000662:	d105      	bne.n	8000670 <__cmpsf2+0x58>
 8000664:	ea7f 6c23 	mvns.w	ip, r3, asr #24
 8000668:	d1e4      	bne.n	8000634 <__cmpsf2+0x1c>
 800066a:	ea5f 2c41 	movs.w	ip, r1, lsl #9
 800066e:	d0e1      	beq.n	8000634 <__cmpsf2+0x1c>
 8000670:	f85d 0b04 	ldr.w	r0, [sp], #4
 8000674:	4770      	bx	lr
 8000676:	bf00      	nop

08000678 <__aeabi_cfrcmple>:
 8000678:	4684      	mov	ip, r0
 800067a:	4608      	mov	r0, r1
 800067c:	4661      	mov	r1, ip
 800067e:	e7ff      	b.n	8000680 <__aeabi_cfcmpeq>

08000680 <__aeabi_cfcmpeq>:
 8000680:	b50f      	push	{r0, r1, r2, r3, lr}
 8000682:	f7ff ffc9 	bl	8000618 <__cmpsf2>
 8000686:	2800      	cmp	r0, #0
 8000688:	bf48      	it	mi
 800068a:	f110 0f00 	cmnmi.w	r0, #0
 800068e:	bd0f      	pop	{r0, r1, r2, r3, pc}

08000690 <__aeabi_fcmpeq>:
 8000690:	f84d ed08 	str.w	lr, [sp, #-8]!
 8000694:	f7ff fff4 	bl	8000680 <__aeabi_cfcmpeq>
 8000698:	bf0c      	ite	eq
 800069a:	2001      	moveq	r0, #1
 800069c:	2000      	movne	r0, #0
 800069e:	f85d fb08 	ldr.w	pc, [sp], #8
 80006a2:	bf00      	nop

080006a4 <__aeabi_fcmplt>:
 80006a4:	f84d ed08 	str.w	lr, [sp, #-8]!
 80006a8:	f7ff ffea 	bl	8000680 <__aeabi_cfcmpeq>
 80006ac:	bf34      	ite	cc
 80006ae:	2001      	movcc	r0, #1
 80006b0:	2000      	movcs	r0, #0
 80006b2:	f85d fb08 	ldr.w	pc, [sp], #8
 80006b6:	bf00      	nop

080006b8 <__aeabi_fcmple>:
 80006b8:	f84d ed08 	str.w	lr, [sp, #-8]!
 80006bc:	f7ff ffe0 	bl	8000680 <__aeabi_cfcmpeq>
 80006c0:	bf94      	ite	ls
 80006c2:	2001      	movls	r0, #1
 80006c4:	2000      	movhi	r0, #0
 80006c6:	f85d fb08 	ldr.w	pc, [sp], #8
 80006ca:	bf00      	nop

080006cc <__aeabi_fcmpge>:
 80006cc:	f84d ed08 	str.w	lr, [sp, #-8]!
 80006d0:	f7ff ffd2 	bl	8000678 <__aeabi_cfrcmple>
 80006d4:	bf94      	ite	ls
 80006d6:	2001      	movls	r0, #1
 80006d8:	2000      	movhi	r0, #0
 80006da:	f85d fb08 	ldr.w	pc, [sp], #8
 80006de:	bf00      	nop

080006e0 <__aeabi_fcmpgt>:
 80006e0:	f84d ed08 	str.w	lr, [sp, #-8]!
 80006e4:	f7ff ffc8 	bl	8000678 <__aeabi_cfrcmple>
 80006e8:	bf34      	ite	cc
 80006ea:	2001      	movcc	r0, #1
 80006ec:	2000      	movcs	r0, #0
 80006ee:	f85d fb08 	ldr.w	pc, [sp], #8
 80006f2:	bf00      	nop

080006f4 <__aeabi_f2uiz>:
 80006f4:	0042      	lsls	r2, r0, #1
 80006f6:	d20e      	bcs.n	8000716 <__aeabi_f2uiz+0x22>
 80006f8:	f1b2 4ffe 	cmp.w	r2, #2130706432	@ 0x7f000000
 80006fc:	d30b      	bcc.n	8000716 <__aeabi_f2uiz+0x22>
 80006fe:	f04f 039e 	mov.w	r3, #158	@ 0x9e
 8000702:	ebb3 6212 	subs.w	r2, r3, r2, lsr #24
 8000706:	d409      	bmi.n	800071c <__aeabi_f2uiz+0x28>
 8000708:	ea4f 2300 	mov.w	r3, r0, lsl #8
 800070c:	f043 4300 	orr.w	r3, r3, #2147483648	@ 0x80000000
 8000710:	fa23 f002 	lsr.w	r0, r3, r2
 8000714:	4770      	bx	lr
 8000716:	f04f 0000 	mov.w	r0, #0
 800071a:	4770      	bx	lr
 800071c:	f112 0f61 	cmn.w	r2, #97	@ 0x61
 8000720:	d101      	bne.n	8000726 <__aeabi_f2uiz+0x32>
 8000722:	0242      	lsls	r2, r0, #9
 8000724:	d102      	bne.n	800072c <__aeabi_f2uiz+0x38>
 8000726:	f04f 30ff 	mov.w	r0, #4294967295
 800072a:	4770      	bx	lr
 800072c:	f04f 0000 	mov.w	r0, #0
 8000730:	4770      	bx	lr
 8000732:	bf00      	nop

08000734 <GPIO_Init>:
/* Includes ------------------------------------------------------------------*/
#include "main.h"
#include "../../MiddleWares/MCAL/TIMR/TIM_interface.h"
void GPIO_Init(void) {
 8000734:	b480      	push	{r7}
 8000736:	af00      	add	r7, sp, #0
    // Enable clock for GPIOA
    RCC->APB2ENR |= RCC_APB2ENR_IOPAEN;
 8000738:	4b0d      	ldr	r3, [pc, #52]	@ (8000770 <GPIO_Init+0x3c>)
 800073a:	699b      	ldr	r3, [r3, #24]
 800073c:	4a0c      	ldr	r2, [pc, #48]	@ (8000770 <GPIO_Init+0x3c>)
 800073e:	f043 0304 	orr.w	r3, r3, #4
 8000742:	6193      	str	r3, [r2, #24]

    // Set PA0 as Alternate Function Push-Pull (AFPP) for PWM
    GPIOA->CRL &= 0;          // Clear mode bits for PA0
 8000744:	4b0b      	ldr	r3, [pc, #44]	@ (8000774 <GPIO_Init+0x40>)
 8000746:	681b      	ldr	r3, [r3, #0]
 8000748:	4b0a      	ldr	r3, [pc, #40]	@ (8000774 <GPIO_Init+0x40>)
 800074a:	2200      	movs	r2, #0
 800074c:	601a      	str	r2, [r3, #0]
    GPIOA->CRL |= GPIO_CRL_MODE0_1;         // Set PA0 as output at 2 MHz
 800074e:	4b09      	ldr	r3, [pc, #36]	@ (8000774 <GPIO_Init+0x40>)
 8000750:	681b      	ldr	r3, [r3, #0]
 8000752:	4a08      	ldr	r2, [pc, #32]	@ (8000774 <GPIO_Init+0x40>)
 8000754:	f043 0302 	orr.w	r3, r3, #2
 8000758:	6013      	str	r3, [r2, #0]
    GPIOA->CRL |= GPIO_CRL_CNF0_1;          // Set PA0 to alternate function
 800075a:	4b06      	ldr	r3, [pc, #24]	@ (8000774 <GPIO_Init+0x40>)
 800075c:	681b      	ldr	r3, [r3, #0]
 800075e:	4a05      	ldr	r2, [pc, #20]	@ (8000774 <GPIO_Init+0x40>)
 8000760:	f043 0308 	orr.w	r3, r3, #8
 8000764:	6013      	str	r3, [r2, #0]
}
 8000766:	bf00      	nop
 8000768:	46bd      	mov	sp, r7
 800076a:	bc80      	pop	{r7}
 800076c:	4770      	bx	lr
 800076e:	bf00      	nop
 8000770:	40021000 	.word	0x40021000
 8000774:	40010800 	.word	0x40010800

08000778 <main>:
int main(void)
{
 8000778:	b580      	push	{r7, lr}
 800077a:	af00      	add	r7, sp, #0

	GPIO_Init();
 800077c:	f7ff ffda 	bl	8000734 <GPIO_Init>
	TIM_initPWM(TIM2, 1, 100);
 8000780:	4a07      	ldr	r2, [pc, #28]	@ (80007a0 <main+0x28>)
 8000782:	2101      	movs	r1, #1
 8000784:	f04f 4080 	mov.w	r0, #1073741824	@ 0x40000000
 8000788:	f000 f876 	bl	8000878 <TIM_initPWM>
	TIM_writePWM(TIM2, 1, 1);
 800078c:	f04f 527e 	mov.w	r2, #1065353216	@ 0x3f800000
 8000790:	2101      	movs	r1, #1
 8000792:	f04f 4080 	mov.w	r0, #1073741824	@ 0x40000000
 8000796:	f000 f9b7 	bl	8000b08 <TIM_writePWM>
	while (1)
 800079a:	bf00      	nop
 800079c:	e7fd      	b.n	800079a <main+0x22>
 800079e:	bf00      	nop
 80007a0:	42c80000 	.word	0x42c80000

080007a4 <NMI_Handler>:
/******************************************************************************/
/**
  * @brief This function handles Non maskable interrupt.
  */
void NMI_Handler(void)
{
 80007a4:	b480      	push	{r7}
 80007a6:	af00      	add	r7, sp, #0
  /* USER CODE BEGIN NonMaskableInt_IRQn 0 */

  /* USER CODE END NonMaskableInt_IRQn 0 */
  /* USER CODE BEGIN NonMaskableInt_IRQn 1 */
   while (1)
 80007a8:	bf00      	nop
 80007aa:	e7fd      	b.n	80007a8 <NMI_Handler+0x4>

080007ac <HardFault_Handler>:

/**
  * @brief This function handles Hard fault interrupt.
  */
void HardFault_Handler(void)
{
 80007ac:	b480      	push	{r7}
 80007ae:	af00      	add	r7, sp, #0
  /* USER CODE BEGIN HardFault_IRQn 0 */

  /* USER CODE END HardFault_IRQn 0 */
  while (1)
 80007b0:	bf00      	nop
 80007b2:	e7fd      	b.n	80007b0 <HardFault_Handler+0x4>

080007b4 <MemManage_Handler>:

/**
  * @brief This function handles Memory management fault.
  */
void MemManage_Handler(void)
{
 80007b4:	b480      	push	{r7}
 80007b6:	af00      	add	r7, sp, #0
  /* USER CODE BEGIN MemoryManagement_IRQn 0 */

  /* USER CODE END MemoryManagement_IRQn 0 */
  while (1)
 80007b8:	bf00      	nop
 80007ba:	e7fd      	b.n	80007b8 <MemManage_Handler+0x4>

080007bc <BusFault_Handler>:

/**
  * @brief This function handles Prefetch fault, memory access fault.
  */
void BusFault_Handler(void)
{
 80007bc:	b480      	push	{r7}
 80007be:	af00      	add	r7, sp, #0
  /* USER CODE BEGIN BusFault_IRQn 0 */

  /* USER CODE END BusFault_IRQn 0 */
  while (1)
 80007c0:	bf00      	nop
 80007c2:	e7fd      	b.n	80007c0 <BusFault_Handler+0x4>

080007c4 <UsageFault_Handler>:

/**
  * @brief This function handles Undefined instruction or illegal state.
  */
void UsageFault_Handler(void)
{
 80007c4:	b480      	push	{r7}
 80007c6:	af00      	add	r7, sp, #0
  /* USER CODE BEGIN UsageFault_IRQn 0 */

  /* USER CODE END UsageFault_IRQn 0 */
  while (1)
 80007c8:	bf00      	nop
 80007ca:	e7fd      	b.n	80007c8 <UsageFault_Handler+0x4>

080007cc <SVC_Handler>:

/**
  * @brief This function handles System service call via SWI instruction.
  */
void SVC_Handler(void)
{
 80007cc:	b480      	push	{r7}
 80007ce:	af00      	add	r7, sp, #0

  /* USER CODE END SVCall_IRQn 0 */
  /* USER CODE BEGIN SVCall_IRQn 1 */

  /* USER CODE END SVCall_IRQn 1 */
}
 80007d0:	bf00      	nop
 80007d2:	46bd      	mov	sp, r7
 80007d4:	bc80      	pop	{r7}
 80007d6:	4770      	bx	lr

080007d8 <DebugMon_Handler>:

/**
  * @brief This function handles Debug monitor.
  */
void DebugMon_Handler(void)
{
 80007d8:	b480      	push	{r7}
 80007da:	af00      	add	r7, sp, #0

  /* USER CODE END DebugMonitor_IRQn 0 */
  /* USER CODE BEGIN DebugMonitor_IRQn 1 */

  /* USER CODE END DebugMonitor_IRQn 1 */
}
 80007dc:	bf00      	nop
 80007de:	46bd      	mov	sp, r7
 80007e0:	bc80      	pop	{r7}
 80007e2:	4770      	bx	lr

080007e4 <PendSV_Handler>:

/**
  * @brief This function handles Pendable request for system service.
  */
void PendSV_Handler(void)
{
 80007e4:	b480      	push	{r7}
 80007e6:	af00      	add	r7, sp, #0

  /* USER CODE END PendSV_IRQn 0 */
  /* USER CODE BEGIN PendSV_IRQn 1 */

  /* USER CODE END PendSV_IRQn 1 */
}
 80007e8:	bf00      	nop
 80007ea:	46bd      	mov	sp, r7
 80007ec:	bc80      	pop	{r7}
 80007ee:	4770      	bx	lr

080007f0 <SysTick_Handler>:

/**
  * @brief This function handles System tick timer.
  */
void SysTick_Handler(void)
{
 80007f0:	b580      	push	{r7, lr}
 80007f2:	af00      	add	r7, sp, #0
  /* USER CODE BEGIN SysTick_IRQn 0 */

  /* USER CODE END SysTick_IRQn 0 */
  HAL_IncTick();
 80007f4:	f000 f82e 	bl	8000854 <HAL_IncTick>
  /* USER CODE BEGIN SysTick_IRQn 1 */

  /* USER CODE END SysTick_IRQn 1 */
}
 80007f8:	bf00      	nop
 80007fa:	bd80      	pop	{r7, pc}

080007fc <SystemInit>:
  * @note   This function should be used only after reset.
  * @param  None
  * @retval None
  */
void SystemInit (void)
{
 80007fc:	b480      	push	{r7}
 80007fe:	af00      	add	r7, sp, #0

  /* Configure the Vector Table location -------------------------------------*/
#if defined(USER_VECT_TAB_ADDRESS)
  SCB->VTOR = VECT_TAB_BASE_ADDRESS | VECT_TAB_OFFSET; /* Vector Table Relocation in Internal SRAM. */
#endif /* USER_VECT_TAB_ADDRESS */
}
 8000800:	bf00      	nop
 8000802:	46bd      	mov	sp, r7
 8000804:	bc80      	pop	{r7}
 8000806:	4770      	bx	lr

08000808 <Reset_Handler>:
  .weak Reset_Handler
  .type Reset_Handler, %function
Reset_Handler:

/* Call the clock system initialization function.*/
    bl  SystemInit
 8000808:	f7ff fff8 	bl	80007fc <SystemInit>

/* Copy the data segment initializers from flash to SRAM */
  ldr r0, =_sdata
 800080c:	480b      	ldr	r0, [pc, #44]	@ (800083c <LoopFillZerobss+0xe>)
  ldr r1, =_edata
 800080e:	490c      	ldr	r1, [pc, #48]	@ (8000840 <LoopFillZerobss+0x12>)
  ldr r2, =_sidata
 8000810:	4a0c      	ldr	r2, [pc, #48]	@ (8000844 <LoopFillZerobss+0x16>)
  movs r3, #0
 8000812:	2300      	movs	r3, #0
  b LoopCopyDataInit
 8000814:	e002      	b.n	800081c <LoopCopyDataInit>

08000816 <CopyDataInit>:

CopyDataInit:
  ldr r4, [r2, r3]
 8000816:	58d4      	ldr	r4, [r2, r3]
  str r4, [r0, r3]
 8000818:	50c4      	str	r4, [r0, r3]
  adds r3, r3, #4
 800081a:	3304      	adds	r3, #4

0800081c <LoopCopyDataInit>:

LoopCopyDataInit:
  adds r4, r0, r3
 800081c:	18c4      	adds	r4, r0, r3
  cmp r4, r1
 800081e:	428c      	cmp	r4, r1
  bcc CopyDataInit
 8000820:	d3f9      	bcc.n	8000816 <CopyDataInit>
  
/* Zero fill the bss segment. */
  ldr r2, =_sbss
 8000822:	4a09      	ldr	r2, [pc, #36]	@ (8000848 <LoopFillZerobss+0x1a>)
  ldr r4, =_ebss
 8000824:	4c09      	ldr	r4, [pc, #36]	@ (800084c <LoopFillZerobss+0x1e>)
  movs r3, #0
 8000826:	2300      	movs	r3, #0
  b LoopFillZerobss
 8000828:	e001      	b.n	800082e <LoopFillZerobss>

0800082a <FillZerobss>:

FillZerobss:
  str  r3, [r2]
 800082a:	6013      	str	r3, [r2, #0]
  adds r2, r2, #4
 800082c:	3204      	adds	r2, #4

0800082e <LoopFillZerobss>:

LoopFillZerobss:
  cmp r2, r4
 800082e:	42a2      	cmp	r2, r4
  bcc FillZerobss
 8000830:	d3fb      	bcc.n	800082a <FillZerobss>

/* Call static constructors */
    bl __libc_init_array
 8000832:	f000 f9bf 	bl	8000bb4 <__libc_init_array>
/* Call the application's entry point.*/
  bl main
 8000836:	f7ff ff9f 	bl	8000778 <main>
  bx lr
 800083a:	4770      	bx	lr
  ldr r0, =_sdata
 800083c:	20000000 	.word	0x20000000
  ldr r1, =_edata
 8000840:	20000004 	.word	0x20000004
  ldr r2, =_sidata
 8000844:	08000c1c 	.word	0x08000c1c
  ldr r2, =_sbss
 8000848:	20000004 	.word	0x20000004
  ldr r4, =_ebss
 800084c:	20000024 	.word	0x20000024

08000850 <ADC1_2_IRQHandler>:
 * @retval : None
*/
    .section .text.Default_Handler,"ax",%progbits
Default_Handler:
Infinite_Loop:
  b Infinite_Loop
 8000850:	e7fe      	b.n	8000850 <ADC1_2_IRQHandler>
	...

08000854 <HAL_IncTick>:
  * @note This function is declared as __weak to be overwritten in case of other
  *      implementations in user file.
  * @retval None
  */
__weak void HAL_IncTick(void)
{
 8000854:	b480      	push	{r7}
 8000856:	af00      	add	r7, sp, #0
  uwTick += uwTickFreq;
 8000858:	4b05      	ldr	r3, [pc, #20]	@ (8000870 <HAL_IncTick+0x1c>)
 800085a:	781b      	ldrb	r3, [r3, #0]
 800085c:	461a      	mov	r2, r3
 800085e:	4b05      	ldr	r3, [pc, #20]	@ (8000874 <HAL_IncTick+0x20>)
 8000860:	681b      	ldr	r3, [r3, #0]
 8000862:	4413      	add	r3, r2
 8000864:	4a03      	ldr	r2, [pc, #12]	@ (8000874 <HAL_IncTick+0x20>)
 8000866:	6013      	str	r3, [r2, #0]
}
 8000868:	bf00      	nop
 800086a:	46bd      	mov	sp, r7
 800086c:	bc80      	pop	{r7}
 800086e:	4770      	bx	lr
 8000870:	20000000 	.word	0x20000000
 8000874:	20000020 	.word	0x20000020

08000878 <TIM_initPWM>:
#include "TIM_interface.h"

void TIM_initPWM(TIM_TypeDef *TIMX, uint8_t channel, float frequency){
 8000878:	b580      	push	{r7, lr}
 800087a:	b088      	sub	sp, #32
 800087c:	af00      	add	r7, sp, #0
 800087e:	60f8      	str	r0, [r7, #12]
 8000880:	460b      	mov	r3, r1
 8000882:	607a      	str	r2, [r7, #4]
 8000884:	72fb      	strb	r3, [r7, #11]
	if (channel < 1 || channel > 4){
 8000886:	7afb      	ldrb	r3, [r7, #11]
 8000888:	2b00      	cmp	r3, #0
 800088a:	f000 8130 	beq.w	8000aee <TIM_initPWM+0x276>
 800088e:	7afb      	ldrb	r3, [r7, #11]
 8000890:	2b04      	cmp	r3, #4
 8000892:	f200 812c 	bhi.w	8000aee <TIM_initPWM+0x276>
		return;
	}
    // init clock
	if (TIMX == TIM2) {
 8000896:	68fb      	ldr	r3, [r7, #12]
 8000898:	f1b3 4f80 	cmp.w	r3, #1073741824	@ 0x40000000
 800089c:	d114      	bne.n	80008c8 <TIM_initPWM+0x50>
		SET_BIT(RCC->APB1ENR, 0);
 800089e:	4b96      	ldr	r3, [pc, #600]	@ (8000af8 <TIM_initPWM+0x280>)
 80008a0:	69db      	ldr	r3, [r3, #28]
 80008a2:	4a95      	ldr	r2, [pc, #596]	@ (8000af8 <TIM_initPWM+0x280>)
 80008a4:	f043 0301 	orr.w	r3, r3, #1
 80008a8:	61d3      	str	r3, [r2, #28]
		switch (channel){
 80008aa:	7afb      	ldrb	r3, [r7, #11]
 80008ac:	3b01      	subs	r3, #1
 80008ae:	2b03      	cmp	r3, #3
 80008b0:	d83e      	bhi.n	8000930 <TIM_initPWM+0xb8>
 80008b2:	a201      	add	r2, pc, #4	@ (adr r2, 80008b8 <TIM_initPWM+0x40>)
 80008b4:	f852 f023 	ldr.w	pc, [r2, r3, lsl #2]
 80008b8:	08000931 	.word	0x08000931
 80008bc:	08000931 	.word	0x08000931
 80008c0:	08000931 	.word	0x08000931
 80008c4:	08000931 	.word	0x08000931
			break;
		case 4:

			break;
		}
    } else if (TIMX == TIM3) {
 80008c8:	68fb      	ldr	r3, [r7, #12]
 80008ca:	4a8c      	ldr	r2, [pc, #560]	@ (8000afc <TIM_initPWM+0x284>)
 80008cc:	4293      	cmp	r3, r2
 80008ce:	d115      	bne.n	80008fc <TIM_initPWM+0x84>
		SET_BIT(RCC->APB1ENR, 1);
 80008d0:	4b89      	ldr	r3, [pc, #548]	@ (8000af8 <TIM_initPWM+0x280>)
 80008d2:	69db      	ldr	r3, [r3, #28]
 80008d4:	4a88      	ldr	r2, [pc, #544]	@ (8000af8 <TIM_initPWM+0x280>)
 80008d6:	f043 0302 	orr.w	r3, r3, #2
 80008da:	61d3      	str	r3, [r2, #28]
		switch (channel){
 80008dc:	7afb      	ldrb	r3, [r7, #11]
 80008de:	3b01      	subs	r3, #1
 80008e0:	2b03      	cmp	r3, #3
 80008e2:	d825      	bhi.n	8000930 <TIM_initPWM+0xb8>
 80008e4:	a201      	add	r2, pc, #4	@ (adr r2, 80008ec <TIM_initPWM+0x74>)
 80008e6:	f852 f023 	ldr.w	pc, [r2, r3, lsl #2]
 80008ea:	bf00      	nop
 80008ec:	08000931 	.word	0x08000931
 80008f0:	08000931 	.word	0x08000931
 80008f4:	08000931 	.word	0x08000931
 80008f8:	08000931 	.word	0x08000931
			break;
		case 4:

			break;
		}
    } else if (TIMX == TIM4) {
 80008fc:	68fb      	ldr	r3, [r7, #12]
 80008fe:	4a80      	ldr	r2, [pc, #512]	@ (8000b00 <TIM_initPWM+0x288>)
 8000900:	4293      	cmp	r3, r2
 8000902:	d115      	bne.n	8000930 <TIM_initPWM+0xb8>
		SET_BIT(RCC->APB1ENR, 2);
 8000904:	4b7c      	ldr	r3, [pc, #496]	@ (8000af8 <TIM_initPWM+0x280>)
 8000906:	69db      	ldr	r3, [r3, #28]
 8000908:	4a7b      	ldr	r2, [pc, #492]	@ (8000af8 <TIM_initPWM+0x280>)
 800090a:	f043 0304 	orr.w	r3, r3, #4
 800090e:	61d3      	str	r3, [r2, #28]
		switch (channel){
 8000910:	7afb      	ldrb	r3, [r7, #11]
 8000912:	3b01      	subs	r3, #1
 8000914:	2b03      	cmp	r3, #3
 8000916:	d80b      	bhi.n	8000930 <TIM_initPWM+0xb8>
 8000918:	a201      	add	r2, pc, #4	@ (adr r2, 8000920 <TIM_initPWM+0xa8>)
 800091a:	f852 f023 	ldr.w	pc, [r2, r3, lsl #2]
 800091e:	bf00      	nop
 8000920:	08000931 	.word	0x08000931
 8000924:	08000931 	.word	0x08000931
 8000928:	08000931 	.word	0x08000931
 800092c:	08000931 	.word	0x08000931
			break;
		}
    }

	// direction
	CLEAR_BIT(TIMX->CR1, 4);
 8000930:	68fb      	ldr	r3, [r7, #12]
 8000932:	681b      	ldr	r3, [r3, #0]
 8000934:	f023 0210 	bic.w	r2, r3, #16
 8000938:	68fb      	ldr	r3, [r7, #12]
 800093a:	601a      	str	r2, [r3, #0]
	// mode 'edge aligned'
	CLEAR_BIT(TIMX->CR1, 5);
 800093c:	68fb      	ldr	r3, [r7, #12]
 800093e:	681b      	ldr	r3, [r3, #0]
 8000940:	f023 0220 	bic.w	r2, r3, #32
 8000944:	68fb      	ldr	r3, [r7, #12]
 8000946:	601a      	str	r2, [r3, #0]
	CLEAR_BIT(TIMX->CR1, 6);
 8000948:	68fb      	ldr	r3, [r7, #12]
 800094a:	681b      	ldr	r3, [r3, #0]
 800094c:	f023 0240 	bic.w	r2, r3, #64	@ 0x40
 8000950:	68fb      	ldr	r3, [r7, #12]
 8000952:	601a      	str	r2, [r3, #0]
	// set the ARR preload
	SET_BIT(TIMX->CR1, 7);
 8000954:	68fb      	ldr	r3, [r7, #12]
 8000956:	681b      	ldr	r3, [r3, #0]
 8000958:	f043 0280 	orr.w	r2, r3, #128	@ 0x80
 800095c:	68fb      	ldr	r3, [r7, #12]
 800095e:	601a      	str	r2, [r3, #0]
	//enable the capture compare corresponding pin
	SET_BIT(TIMX->CCER, (4*(channel-1)));
 8000960:	68fb      	ldr	r3, [r7, #12]
 8000962:	6a1b      	ldr	r3, [r3, #32]
 8000964:	7afa      	ldrb	r2, [r7, #11]
 8000966:	3a01      	subs	r2, #1
 8000968:	0092      	lsls	r2, r2, #2
 800096a:	2101      	movs	r1, #1
 800096c:	fa01 f202 	lsl.w	r2, r1, r2
 8000970:	431a      	orrs	r2, r3
 8000972:	68fb      	ldr	r3, [r7, #12]
 8000974:	621a      	str	r2, [r3, #32]
	// choose the polarity of the pin to active high
	CLEAR_BIT(TIMX->CCER, (4*(channel-1)+1));
 8000976:	68fb      	ldr	r3, [r7, #12]
 8000978:	6a1b      	ldr	r3, [r3, #32]
 800097a:	7afa      	ldrb	r2, [r7, #11]
 800097c:	3a01      	subs	r2, #1
 800097e:	0092      	lsls	r2, r2, #2
 8000980:	3201      	adds	r2, #1
 8000982:	2101      	movs	r1, #1
 8000984:	fa01 f202 	lsl.w	r2, r1, r2
 8000988:	43d2      	mvns	r2, r2
 800098a:	401a      	ands	r2, r3
 800098c:	68fb      	ldr	r3, [r7, #12]
 800098e:	621a      	str	r2, [r3, #32]

	volatile uint32_t *CCMRX;
	uint8_t modChannel = 1;
 8000990:	2301      	movs	r3, #1
 8000992:	76fb      	strb	r3, [r7, #27]
	if (channel <= 2){
 8000994:	7afb      	ldrb	r3, [r7, #11]
 8000996:	2b02      	cmp	r3, #2
 8000998:	d805      	bhi.n	80009a6 <TIM_initPWM+0x12e>
		CCMRX = &TIMX->CCMR1;
 800099a:	68fb      	ldr	r3, [r7, #12]
 800099c:	3318      	adds	r3, #24
 800099e:	61fb      	str	r3, [r7, #28]
		modChannel = channel;
 80009a0:	7afb      	ldrb	r3, [r7, #11]
 80009a2:	76fb      	strb	r3, [r7, #27]
 80009a4:	e005      	b.n	80009b2 <TIM_initPWM+0x13a>
	}else{
		CCMRX = &TIMX->CCMR2;
 80009a6:	68fb      	ldr	r3, [r7, #12]
 80009a8:	331c      	adds	r3, #28
 80009aa:	61fb      	str	r3, [r7, #28]
		modChannel = channel-2;
 80009ac:	7afb      	ldrb	r3, [r7, #11]
 80009ae:	3b02      	subs	r3, #2
 80009b0:	76fb      	strb	r3, [r7, #27]
	}
	// set the channel mode to be output
	CLEAR_BIT(*CCMRX, (8*(modChannel-1)));
 80009b2:	69fb      	ldr	r3, [r7, #28]
 80009b4:	681b      	ldr	r3, [r3, #0]
 80009b6:	7efa      	ldrb	r2, [r7, #27]
 80009b8:	3a01      	subs	r2, #1
 80009ba:	00d2      	lsls	r2, r2, #3
 80009bc:	2101      	movs	r1, #1
 80009be:	fa01 f202 	lsl.w	r2, r1, r2
 80009c2:	43d2      	mvns	r2, r2
 80009c4:	401a      	ands	r2, r3
 80009c6:	69fb      	ldr	r3, [r7, #28]
 80009c8:	601a      	str	r2, [r3, #0]
	CLEAR_BIT(*CCMRX, (8*(modChannel-1)+1));
 80009ca:	69fb      	ldr	r3, [r7, #28]
 80009cc:	681b      	ldr	r3, [r3, #0]
 80009ce:	7efa      	ldrb	r2, [r7, #27]
 80009d0:	3a01      	subs	r2, #1
 80009d2:	00d2      	lsls	r2, r2, #3
 80009d4:	3201      	adds	r2, #1
 80009d6:	2101      	movs	r1, #1
 80009d8:	fa01 f202 	lsl.w	r2, r1, r2
 80009dc:	43d2      	mvns	r2, r2
 80009de:	401a      	ands	r2, r3
 80009e0:	69fb      	ldr	r3, [r7, #28]
 80009e2:	601a      	str	r2, [r3, #0]
	// set the channel preload enable
	SET_BIT(*CCMRX, (8*(modChannel-1)+3));
 80009e4:	69fb      	ldr	r3, [r7, #28]
 80009e6:	681b      	ldr	r3, [r3, #0]
 80009e8:	7efa      	ldrb	r2, [r7, #27]
 80009ea:	3a01      	subs	r2, #1
 80009ec:	00d2      	lsls	r2, r2, #3
 80009ee:	3203      	adds	r2, #3
 80009f0:	2101      	movs	r1, #1
 80009f2:	fa01 f202 	lsl.w	r2, r1, r2
 80009f6:	431a      	orrs	r2, r3
 80009f8:	69fb      	ldr	r3, [r7, #28]
 80009fa:	601a      	str	r2, [r3, #0]
	// select PWM mode 1
	CLEAR_BIT(*CCMRX, (8*(modChannel-1)+4));
 80009fc:	69fb      	ldr	r3, [r7, #28]
 80009fe:	681b      	ldr	r3, [r3, #0]
 8000a00:	7efa      	ldrb	r2, [r7, #27]
 8000a02:	3a01      	subs	r2, #1
 8000a04:	00d2      	lsls	r2, r2, #3
 8000a06:	3204      	adds	r2, #4
 8000a08:	2101      	movs	r1, #1
 8000a0a:	fa01 f202 	lsl.w	r2, r1, r2
 8000a0e:	43d2      	mvns	r2, r2
 8000a10:	401a      	ands	r2, r3
 8000a12:	69fb      	ldr	r3, [r7, #28]
 8000a14:	601a      	str	r2, [r3, #0]
	SET_BIT(*CCMRX, (8*(modChannel-1)+5));
 8000a16:	69fb      	ldr	r3, [r7, #28]
 8000a18:	681b      	ldr	r3, [r3, #0]
 8000a1a:	7efa      	ldrb	r2, [r7, #27]
 8000a1c:	3a01      	subs	r2, #1
 8000a1e:	00d2      	lsls	r2, r2, #3
 8000a20:	3205      	adds	r2, #5
 8000a22:	2101      	movs	r1, #1
 8000a24:	fa01 f202 	lsl.w	r2, r1, r2
 8000a28:	431a      	orrs	r2, r3
 8000a2a:	69fb      	ldr	r3, [r7, #28]
 8000a2c:	601a      	str	r2, [r3, #0]
	SET_BIT(*CCMRX, (8*(modChannel-1)+6));
 8000a2e:	69fb      	ldr	r3, [r7, #28]
 8000a30:	681b      	ldr	r3, [r3, #0]
 8000a32:	7efa      	ldrb	r2, [r7, #27]
 8000a34:	3a01      	subs	r2, #1
 8000a36:	00d2      	lsls	r2, r2, #3
 8000a38:	3206      	adds	r2, #6
 8000a3a:	2101      	movs	r1, #1
 8000a3c:	fa01 f202 	lsl.w	r2, r1, r2
 8000a40:	431a      	orrs	r2, r3
 8000a42:	69fb      	ldr	r3, [r7, #28]
 8000a44:	601a      	str	r2, [r3, #0]

	// setting the psc with zero
	TIMX->PSC = 0;
 8000a46:	68fb      	ldr	r3, [r7, #12]
 8000a48:	2200      	movs	r2, #0
 8000a4a:	629a      	str	r2, [r3, #40]	@ 0x28
	// calculating prescaler and arr for specific frequency
	float currentARR = (8000000/((frequency*(TIMX->PSC+1))))-1;
 8000a4c:	68fb      	ldr	r3, [r7, #12]
 8000a4e:	6a9b      	ldr	r3, [r3, #40]	@ 0x28
 8000a50:	3301      	adds	r3, #1
 8000a52:	4618      	mov	r0, r3
 8000a54:	f7ff fc30 	bl	80002b8 <__aeabi_ui2f>
 8000a58:	4603      	mov	r3, r0
 8000a5a:	6879      	ldr	r1, [r7, #4]
 8000a5c:	4618      	mov	r0, r3
 8000a5e:	f7ff fc83 	bl	8000368 <__aeabi_fmul>
 8000a62:	4603      	mov	r3, r0
 8000a64:	4619      	mov	r1, r3
 8000a66:	4827      	ldr	r0, [pc, #156]	@ (8000b04 <TIM_initPWM+0x28c>)
 8000a68:	f7ff fd32 	bl	80004d0 <__aeabi_fdiv>
 8000a6c:	4603      	mov	r3, r0
 8000a6e:	f04f 517e 	mov.w	r1, #1065353216	@ 0x3f800000
 8000a72:	4618      	mov	r0, r3
 8000a74:	f7ff fb6e 	bl	8000154 <__aeabi_fsub>
 8000a78:	4603      	mov	r3, r0
 8000a7a:	617b      	str	r3, [r7, #20]
	while (currentARR >= 65536){
 8000a7c:	e01c      	b.n	8000ab8 <TIM_initPWM+0x240>
		TIMX->PSC += 1;
 8000a7e:	68fb      	ldr	r3, [r7, #12]
 8000a80:	6a9b      	ldr	r3, [r3, #40]	@ 0x28
 8000a82:	1c5a      	adds	r2, r3, #1
 8000a84:	68fb      	ldr	r3, [r7, #12]
 8000a86:	629a      	str	r2, [r3, #40]	@ 0x28
		currentARR = (8000000/((frequency*(TIMX->PSC+1))))-1;
 8000a88:	68fb      	ldr	r3, [r7, #12]
 8000a8a:	6a9b      	ldr	r3, [r3, #40]	@ 0x28
 8000a8c:	3301      	adds	r3, #1
 8000a8e:	4618      	mov	r0, r3
 8000a90:	f7ff fc12 	bl	80002b8 <__aeabi_ui2f>
 8000a94:	4603      	mov	r3, r0
 8000a96:	6879      	ldr	r1, [r7, #4]
 8000a98:	4618      	mov	r0, r3
 8000a9a:	f7ff fc65 	bl	8000368 <__aeabi_fmul>
 8000a9e:	4603      	mov	r3, r0
 8000aa0:	4619      	mov	r1, r3
 8000aa2:	4818      	ldr	r0, [pc, #96]	@ (8000b04 <TIM_initPWM+0x28c>)
 8000aa4:	f7ff fd14 	bl	80004d0 <__aeabi_fdiv>
 8000aa8:	4603      	mov	r3, r0
 8000aaa:	f04f 517e 	mov.w	r1, #1065353216	@ 0x3f800000
 8000aae:	4618      	mov	r0, r3
 8000ab0:	f7ff fb50 	bl	8000154 <__aeabi_fsub>
 8000ab4:	4603      	mov	r3, r0
 8000ab6:	617b      	str	r3, [r7, #20]
	while (currentARR >= 65536){
 8000ab8:	f04f 418f 	mov.w	r1, #1199570944	@ 0x47800000
 8000abc:	6978      	ldr	r0, [r7, #20]
 8000abe:	f7ff fe05 	bl	80006cc <__aeabi_fcmpge>
 8000ac2:	4603      	mov	r3, r0
 8000ac4:	2b00      	cmp	r3, #0
 8000ac6:	d1da      	bne.n	8000a7e <TIM_initPWM+0x206>
	}
	TIMX->ARR = currentARR;
 8000ac8:	6978      	ldr	r0, [r7, #20]
 8000aca:	f7ff fe13 	bl	80006f4 <__aeabi_f2uiz>
 8000ace:	4602      	mov	r2, r0
 8000ad0:	68fb      	ldr	r3, [r7, #12]
 8000ad2:	62da      	str	r2, [r3, #44]	@ 0x2c
	SET_BIT(TIMX->EGR, 0);  // UG: Update Generation
 8000ad4:	68fb      	ldr	r3, [r7, #12]
 8000ad6:	695b      	ldr	r3, [r3, #20]
 8000ad8:	f043 0201 	orr.w	r2, r3, #1
 8000adc:	68fb      	ldr	r3, [r7, #12]
 8000ade:	615a      	str	r2, [r3, #20]
	// start counting
	SET_BIT(TIMX->CR1, 0);
 8000ae0:	68fb      	ldr	r3, [r7, #12]
 8000ae2:	681b      	ldr	r3, [r3, #0]
 8000ae4:	f043 0201 	orr.w	r2, r3, #1
 8000ae8:	68fb      	ldr	r3, [r7, #12]
 8000aea:	601a      	str	r2, [r3, #0]
 8000aec:	e000      	b.n	8000af0 <TIM_initPWM+0x278>
		return;
 8000aee:	bf00      	nop
}
 8000af0:	3720      	adds	r7, #32
 8000af2:	46bd      	mov	sp, r7
 8000af4:	bd80      	pop	{r7, pc}
 8000af6:	bf00      	nop
 8000af8:	40021000 	.word	0x40021000
 8000afc:	40000400 	.word	0x40000400
 8000b00:	40000800 	.word	0x40000800
 8000b04:	4af42400 	.word	0x4af42400

08000b08 <TIM_writePWM>:

void TIM_writePWM(TIM_TypeDef *TIMX, uint8_t channel, float dutyCycle){
 8000b08:	b590      	push	{r4, r7, lr}
 8000b0a:	b087      	sub	sp, #28
 8000b0c:	af00      	add	r7, sp, #0
 8000b0e:	60f8      	str	r0, [r7, #12]
 8000b10:	460b      	mov	r3, r1
 8000b12:	607a      	str	r2, [r7, #4]
 8000b14:	72fb      	strb	r3, [r7, #11]
	if (channel < 1 || channel > 4 || dutyCycle < 0 || dutyCycle > 100){
 8000b16:	7afb      	ldrb	r3, [r7, #11]
 8000b18:	2b00      	cmp	r3, #0
 8000b1a:	d044      	beq.n	8000ba6 <TIM_writePWM+0x9e>
 8000b1c:	7afb      	ldrb	r3, [r7, #11]
 8000b1e:	2b04      	cmp	r3, #4
 8000b20:	d841      	bhi.n	8000ba6 <TIM_writePWM+0x9e>
 8000b22:	f04f 0100 	mov.w	r1, #0
 8000b26:	6878      	ldr	r0, [r7, #4]
 8000b28:	f7ff fdbc 	bl	80006a4 <__aeabi_fcmplt>
 8000b2c:	4603      	mov	r3, r0
 8000b2e:	2b00      	cmp	r3, #0
 8000b30:	d139      	bne.n	8000ba6 <TIM_writePWM+0x9e>
 8000b32:	491f      	ldr	r1, [pc, #124]	@ (8000bb0 <TIM_writePWM+0xa8>)
 8000b34:	6878      	ldr	r0, [r7, #4]
 8000b36:	f7ff fdd3 	bl	80006e0 <__aeabi_fcmpgt>
 8000b3a:	4603      	mov	r3, r0
 8000b3c:	2b00      	cmp	r3, #0
 8000b3e:	d132      	bne.n	8000ba6 <TIM_writePWM+0x9e>
		return;
	}
	volatile uint32_t *CCRX;
	if (channel == 1) {
 8000b40:	7afb      	ldrb	r3, [r7, #11]
 8000b42:	2b01      	cmp	r3, #1
 8000b44:	d103      	bne.n	8000b4e <TIM_writePWM+0x46>
		CCRX = &TIMX->CCR1;
 8000b46:	68fb      	ldr	r3, [r7, #12]
 8000b48:	3334      	adds	r3, #52	@ 0x34
 8000b4a:	617b      	str	r3, [r7, #20]
 8000b4c:	e013      	b.n	8000b76 <TIM_writePWM+0x6e>
    } else if (channel == 2) {
 8000b4e:	7afb      	ldrb	r3, [r7, #11]
 8000b50:	2b02      	cmp	r3, #2
 8000b52:	d103      	bne.n	8000b5c <TIM_writePWM+0x54>
    	CCRX = &TIMX->CCR2;
 8000b54:	68fb      	ldr	r3, [r7, #12]
 8000b56:	3338      	adds	r3, #56	@ 0x38
 8000b58:	617b      	str	r3, [r7, #20]
 8000b5a:	e00c      	b.n	8000b76 <TIM_writePWM+0x6e>
    } else if (channel == 3) {
 8000b5c:	7afb      	ldrb	r3, [r7, #11]
 8000b5e:	2b03      	cmp	r3, #3
 8000b60:	d103      	bne.n	8000b6a <TIM_writePWM+0x62>
    	CCRX = &TIMX->CCR3;
 8000b62:	68fb      	ldr	r3, [r7, #12]
 8000b64:	333c      	adds	r3, #60	@ 0x3c
 8000b66:	617b      	str	r3, [r7, #20]
 8000b68:	e005      	b.n	8000b76 <TIM_writePWM+0x6e>
    } else if (channel == 4) {
 8000b6a:	7afb      	ldrb	r3, [r7, #11]
 8000b6c:	2b04      	cmp	r3, #4
 8000b6e:	d102      	bne.n	8000b76 <TIM_writePWM+0x6e>
    	CCRX = &TIMX->CCR4;
 8000b70:	68fb      	ldr	r3, [r7, #12]
 8000b72:	3340      	adds	r3, #64	@ 0x40
 8000b74:	617b      	str	r3, [r7, #20]
    }
	*CCRX = (dutyCycle/100)*(TIMX->ARR);
 8000b76:	490e      	ldr	r1, [pc, #56]	@ (8000bb0 <TIM_writePWM+0xa8>)
 8000b78:	6878      	ldr	r0, [r7, #4]
 8000b7a:	f7ff fca9 	bl	80004d0 <__aeabi_fdiv>
 8000b7e:	4603      	mov	r3, r0
 8000b80:	461c      	mov	r4, r3
 8000b82:	68fb      	ldr	r3, [r7, #12]
 8000b84:	6adb      	ldr	r3, [r3, #44]	@ 0x2c
 8000b86:	4618      	mov	r0, r3
 8000b88:	f7ff fb96 	bl	80002b8 <__aeabi_ui2f>
 8000b8c:	4603      	mov	r3, r0
 8000b8e:	4619      	mov	r1, r3
 8000b90:	4620      	mov	r0, r4
 8000b92:	f7ff fbe9 	bl	8000368 <__aeabi_fmul>
 8000b96:	4603      	mov	r3, r0
 8000b98:	4618      	mov	r0, r3
 8000b9a:	f7ff fdab 	bl	80006f4 <__aeabi_f2uiz>
 8000b9e:	4602      	mov	r2, r0
 8000ba0:	697b      	ldr	r3, [r7, #20]
 8000ba2:	601a      	str	r2, [r3, #0]
 8000ba4:	e000      	b.n	8000ba8 <TIM_writePWM+0xa0>
		return;
 8000ba6:	bf00      	nop
}
 8000ba8:	371c      	adds	r7, #28
 8000baa:	46bd      	mov	sp, r7
 8000bac:	bd90      	pop	{r4, r7, pc}
 8000bae:	bf00      	nop
 8000bb0:	42c80000 	.word	0x42c80000

08000bb4 <__libc_init_array>:
 8000bb4:	b570      	push	{r4, r5, r6, lr}
 8000bb6:	2600      	movs	r6, #0
 8000bb8:	4d0c      	ldr	r5, [pc, #48]	@ (8000bec <__libc_init_array+0x38>)
 8000bba:	4c0d      	ldr	r4, [pc, #52]	@ (8000bf0 <__libc_init_array+0x3c>)
 8000bbc:	1b64      	subs	r4, r4, r5
 8000bbe:	10a4      	asrs	r4, r4, #2
 8000bc0:	42a6      	cmp	r6, r4
 8000bc2:	d109      	bne.n	8000bd8 <__libc_init_array+0x24>
 8000bc4:	f000 f81a 	bl	8000bfc <_init>
 8000bc8:	2600      	movs	r6, #0
 8000bca:	4d0a      	ldr	r5, [pc, #40]	@ (8000bf4 <__libc_init_array+0x40>)
 8000bcc:	4c0a      	ldr	r4, [pc, #40]	@ (8000bf8 <__libc_init_array+0x44>)
 8000bce:	1b64      	subs	r4, r4, r5
 8000bd0:	10a4      	asrs	r4, r4, #2
 8000bd2:	42a6      	cmp	r6, r4
 8000bd4:	d105      	bne.n	8000be2 <__libc_init_array+0x2e>
 8000bd6:	bd70      	pop	{r4, r5, r6, pc}
 8000bd8:	f855 3b04 	ldr.w	r3, [r5], #4
 8000bdc:	4798      	blx	r3
 8000bde:	3601      	adds	r6, #1
 8000be0:	e7ee      	b.n	8000bc0 <__libc_init_array+0xc>
 8000be2:	f855 3b04 	ldr.w	r3, [r5], #4
 8000be6:	4798      	blx	r3
 8000be8:	3601      	adds	r6, #1
 8000bea:	e7f2      	b.n	8000bd2 <__libc_init_array+0x1e>
 8000bec:	08000c14 	.word	0x08000c14
 8000bf0:	08000c14 	.word	0x08000c14
 8000bf4:	08000c14 	.word	0x08000c14
 8000bf8:	08000c18 	.word	0x08000c18

08000bfc <_init>:
 8000bfc:	b5f8      	push	{r3, r4, r5, r6, r7, lr}
 8000bfe:	bf00      	nop
 8000c00:	bcf8      	pop	{r3, r4, r5, r6, r7}
 8000c02:	bc08      	pop	{r3}
 8000c04:	469e      	mov	lr, r3
 8000c06:	4770      	bx	lr

08000c08 <_fini>:
 8000c08:	b5f8      	push	{r3, r4, r5, r6, r7, lr}
 8000c0a:	bf00      	nop
 8000c0c:	bcf8      	pop	{r3, r4, r5, r6, r7}
 8000c0e:	bc08      	pop	{r3}
 8000c10:	469e      	mov	lr, r3
 8000c12:	4770      	bx	lr
